; Function Attrs: nounwind uwtable
define void @Acec_ManCountXorTreeInputs_rec(ptr noundef readonly captures(none) %0, i32 noundef %1, ptr noundef readonly captures(none) %2, ptr noundef readonly captures(none) %3, ptr noundef readonly captures(none) %4, ptr noundef captures(none) %5, ptr noundef captures(none) %6) local_unnamed_addr #3 {
  %8 = icmp eq i32 %1, 0
  br i1 %8, label %100, label %9

9:                                                ; preds = %7
  %10 = getelementptr i8, ptr %0, i64 176
  %.val31 = load i32, ptr %10, align 8, !tbaa !38
  %11 = getelementptr i8, ptr %0, i64 616
  %.val32 = load ptr, ptr %11, align 8, !tbaa !39
  %12 = sext i32 %1 to i64
  %13 = getelementptr inbounds i32, ptr %.val32, i64 %12
  %14 = load i32, ptr %13, align 4, !tbaa !31
  %.not = icmp eq i32 %14, %.val31
  br i1 %.not, label %100, label %15

15:                                               ; preds = %9
  store i32 %.val31, ptr %13, align 4, !tbaa !31
  %16 = getelementptr i8, ptr %3, i64 8
  %.val29 = load ptr, ptr %16, align 8, !tbaa !29
  %17 = getelementptr inbounds i32, ptr %.val29, i64 %12
  %18 = load i32, ptr %17, align 4, !tbaa !31
  %19 = icmp eq i32 %18, -1
  br i1 %19, label %23, label %.preheader

.preheader:                                       ; preds = %15
  %20 = shl nsw i32 %18, 2
  %21 = getelementptr i8, ptr %2, i64 8
  %22 = sext i32 %20 to i64
  br label %62

23:                                               ; preds = %15
  %24 = getelementptr i8, ptr %4, i64 8
  %.val30 = load ptr, ptr %24, align 8, !tbaa !40
  %25 = ashr i32 %1, 5
  %26 = sext i32 %25 to i64
  %27 = getelementptr inbounds i32, ptr %.val30, i64 %26
  %28 = load i32, ptr %27, align 4, !tbaa !31
  %29 = and i32 %1, 31
  %30 = shl nuw i32 1, %29
  %31 = and i32 %28, %30
  %.not27 = icmp eq i32 %31, 0
  br i1 %.not27, label %100, label %32

32:                                               ; preds = %23
  %33 = getelementptr inbounds nuw i8, ptr %5, i64 4
  %34 = load i32, ptr %33, align 4, !tbaa !30
  %35 = load i32, ptr %5, align 8, !tbaa !28
  %36 = icmp eq i32 %34, %35
  br i1 %36, label %37, label %.Vec_IntGrow.exit10_crit_edge.i

.Vec_IntGrow.exit10_crit_edge.i:                  ; preds = %32
  %.phi.trans.insert.i = getelementptr inbounds nuw i8, ptr %5, i64 8
  %.pre.i = load ptr, ptr %.phi.trans.insert.i, align 8, !tbaa !29
  br label %Vec_IntPush.exit

37:                                               ; preds = %32
  %38 = icmp slt i32 %34, 16
  br i1 %38, label %39, label %47

39:                                               ; preds = %37
  %40 = getelementptr inbounds nuw i8, ptr %5, i64 8
  %41 = load ptr, ptr %40, align 8, !tbaa !29
  %.not9.i.i = icmp eq ptr %41, null
  br i1 %.not9.i.i, label %44, label %42

42:                                               ; preds = %39
  %43 = tail call dereferenceable_or_null(64) ptr @realloc(ptr noundef nonnull %41, i64 noundef 64) #20
  br label %Vec_IntGrow.exit.i

44:                                               ; preds = %39
  %45 = tail call noalias dereferenceable_or_null(64) ptr @malloc(i64 noundef 64) #19
  br label %Vec_IntGrow.exit.i

Vec_IntGrow.exit.i:                               ; preds = %44, %42
  %46 = phi ptr [ %43, %42 ], [ %45, %44 ]
  store ptr %46, ptr %40, align 8, !tbaa !29
  store i32 16, ptr %5, align 8, !tbaa !28
  br label %Vec_IntPush.exit

47:                                               ; preds = %37
  %48 = shl nuw nsw i32 %34, 1
  %49 = getelementptr inbounds nuw i8, ptr %5, i64 8
  %50 = load ptr, ptr %49, align 8, !tbaa !29
  %.not9.i9.i = icmp eq ptr %50, null
  %51 = zext nneg i32 %48 to i64
  %52 = shl nuw nsw i64 %51, 2
  br i1 %.not9.i9.i, label %55, label %53

53:                                               ; preds = %47
  %54 = tail call ptr @realloc(ptr noundef nonnull %50, i64 noundef %52) #20
  br label %57

55:                                               ; preds = %47
  %56 = tail call noalias ptr @malloc(i64 noundef %52) #19
  br label %57

57:                                               ; preds = %55, %53
  %58 = phi ptr [ %54, %53 ], [ %56, %55 ]
  store ptr %58, ptr %49, align 8, !tbaa !29
  store i32 %48, ptr %5, align 8, !tbaa !28
  br label %Vec_IntPush.exit

Vec_IntPush.exit:                                 ; preds = %.Vec_IntGrow.exit10_crit_edge.i, %Vec_IntGrow.exit.i, %57
  %59 = phi ptr [ %.pre.i, %.Vec_IntGrow.exit10_crit_edge.i ], [ %58, %57 ], [ %46, %Vec_IntGrow.exit.i ]
  %60 = load i32, ptr %33, align 4, !tbaa !30
  %61 = add nsw i32 %60, 1
  store i32 %61, ptr %33, align 4, !tbaa !30
  br label %.sink.split

62:                                               ; preds = %.preheader, %62
  %indvars.iv = phi i64 [ 1, %.preheader ], [ %indvars.iv.next, %62 ]
  %.val28 = load ptr, ptr %21, align 8, !tbaa !29
  %63 = getelementptr i32, ptr %.val28, i64 %indvars.iv
  %64 = getelementptr i32, ptr %63, i64 %22
  %65 = load i32, ptr %64, align 4, !tbaa !31
  tail call void @Acec_ManCountXorTreeInputs_rec(ptr noundef %0, i32 noundef %65, ptr noundef %2, ptr noundef %3, ptr noundef %4, ptr noundef %5, ptr noundef %6)
  %indvars.iv.next = add nuw nsw i64 %indvars.iv, 1
  %exitcond.not = icmp eq i64 %indvars.iv.next, 4
  br i1 %exitcond.not, label %66, label %62, !llvm.loop !42

66:                                               ; preds = %62
  %.val = load ptr, ptr %21, align 8, !tbaa !29
  %67 = getelementptr inbounds i32, ptr %.val, i64 %22
  %68 = load i32, ptr %67, align 4, !tbaa !31
  %69 = getelementptr inbounds nuw i8, ptr %6, i64 4
  %70 = load i32, ptr %69, align 4, !tbaa !30
  %71 = load i32, ptr %6, align 8, !tbaa !28
  %72 = icmp eq i32 %70, %71
  br i1 %72, label %73, label %.Vec_IntGrow.exit10_crit_edge.i35

.Vec_IntGrow.exit10_crit_edge.i35:                ; preds = %66
  %.phi.trans.insert.i36 = getelementptr inbounds nuw i8, ptr %6, i64 8
  %.pre.i37 = load ptr, ptr %.phi.trans.insert.i36, align 8, !tbaa !29
  br label %Vec_IntPush.exit41

73:                                               ; preds = %66
  %74 = icmp slt i32 %70, 16
  br i1 %74, label %75, label %83

75:                                               ; preds = %73
  %76 = getelementptr inbounds nuw i8, ptr %6, i64 8
  %77 = load ptr, ptr %76, align 8, !tbaa !29
  %.not9.i.i39 = icmp eq ptr %77, null
  br i1 %.not9.i.i39, label %80, label %78

78:                                               ; preds = %75
  %79 = tail call dereferenceable_or_null(64) ptr @realloc(ptr noundef nonnull %77, i64 noundef 64) #20
  br label %Vec_IntGrow.exit.i40

80:                                               ; preds = %75
  %81 = tail call noalias dereferenceable_or_null(64) ptr @malloc(i64 noundef 64) #19
  br label %Vec_IntGrow.exit.i40

Vec_IntGrow.exit.i40:                             ; preds = %80, %78
  %82 = phi ptr [ %79, %78 ], [ %81, %80 ]
  store ptr %82, ptr %76, align 8, !tbaa !29
  store i32 16, ptr %6, align 8, !tbaa !28
  br label %Vec_IntPush.exit41

83:                                               ; preds = %73
  %84 = shl nuw nsw i32 %70, 1
  %85 = getelementptr inbounds nuw i8, ptr %6, i64 8
  %86 = load ptr, ptr %85, align 8, !tbaa !29
  %.not9.i9.i38 = icmp eq ptr %86, null
  %87 = zext nneg i32 %84 to i64
  %88 = shl nuw nsw i64 %87, 2
  br i1 %.not9.i9.i38, label %91, label %89

89:                                               ; preds = %83
  %90 = tail call ptr @realloc(ptr noundef nonnull %86, i64 noundef %88) #20
  br label %93

91:                                               ; preds = %83
  %92 = tail call noalias ptr @malloc(i64 noundef %88) #19
  br label %93

93:                                               ; preds = %91, %89
  %94 = phi ptr [ %90, %89 ], [ %92, %91 ]
  store ptr %94, ptr %85, align 8, !tbaa !29
  store i32 %84, ptr %6, align 8, !tbaa !28
  br label %Vec_IntPush.exit41

Vec_IntPush.exit41:                               ; preds = %.Vec_IntGrow.exit10_crit_edge.i35, %Vec_IntGrow.exit.i40, %93
  %95 = phi ptr [ %.pre.i37, %.Vec_IntGrow.exit10_crit_edge.i35 ], [ %94, %93 ], [ %82, %Vec_IntGrow.exit.i40 ]
  %96 = load i32, ptr %69, align 4, !tbaa !30
  %97 = add nsw i32 %96, 1
  store i32 %97, ptr %69, align 4, !tbaa !30
  br label %.sink.split

.sink.split:                                      ; preds = %Vec_IntPush.exit41, %Vec_IntPush.exit
  %.sink47 = phi i32 [ %60, %Vec_IntPush.exit ], [ %96, %Vec_IntPush.exit41 ]
  %.sink45 = phi ptr [ %59, %Vec_IntPush.exit ], [ %95, %Vec_IntPush.exit41 ]
  %.sink = phi i32 [ %1, %Vec_IntPush.exit ], [ %68, %Vec_IntPush.exit41 ]
  %98 = sext i32 %.sink47 to i64
  %99 = getelementptr inbounds i32, ptr %.sink45, i64 %98
  store i32 %.sink, ptr %99, align 4, !tbaa !31
  br label %100

100:                                              ; preds = %.sink.split, %23, %7, %9
  ret void
}